; Function Attrs: mustprogress nofree norecurse nosync nounwind willreturn memory(argmem: read) uwtable
define i64 @ossl_quic_tx_packetiser_get_next_pn(ptr noundef readonly captures(none) %0, i32 noundef %1) local_unnamed_addr #2 {
  %3 = icmp ugt i32 %1, 2
  br i1 %3, label %9, label %4

4:                                                ; preds = %2
  %5 = getelementptr inbounds nuw i8, ptr %0, i64 448
  %6 = zext nneg i32 %1 to i64
  %7 = getelementptr inbounds nuw [3 x i64], ptr %5, i64 0, i64 %6
  %8 = load i64, ptr %7, align 8, !tbaa !49
  br label %9

9:                                                ; preds = %2, %4
  %.0 = phi i64 [ %8, %4 ], [ -1, %2 ]
  ret i64 %.0
}